; Function Attrs: nounwind uwtable
define noalias noundef nonnull ptr @l_Array_forIn_x27Unsafe_loop___at___private_Lean_Compiler_ExternAttr_0__Lean_syntaxToExternAttrData___spec__3___lambda__1(ptr noundef %0, ptr noundef %1, ptr noundef %2, ptr noundef %3, ptr readnone captures(none) %4, ptr readnone captures(none) %5, ptr noundef %6) local_unnamed_addr #0 {
  %8 = tail call ptr @l_Lean_Syntax_getArg(ptr noundef %0, ptr noundef nonnull inttoptr (i64 3 to ptr)) #6
  %9 = tail call zeroext i8 @l_Lean_Syntax_isNone(ptr noundef %8) #6
  %10 = ptrtoint ptr %8 to i64
  %11 = and i64 %10, 1
  %.not = icmp eq i64 %11, 0
  br i1 %.not, label %12, label %lean_dec.exit

12:                                               ; preds = %7
  %13 = load i32, ptr %8, align 4, !tbaa !10
  %14 = icmp sgt i32 %13, 1
  br i1 %14, label %15, label %17, !prof !13

15:                                               ; preds = %12
  %16 = add nsw i32 %13, -1
  store i32 %16, ptr %8, align 4, !tbaa !10
  br label %lean_dec.exit

17:                                               ; preds = %12
  %.not.i = icmp eq i32 %13, 0
  br i1 %.not.i, label %lean_dec.exit, label %18

18:                                               ; preds = %17
  tail call void @lean_dec_ref_cold(ptr noundef nonnull %8) #6
  br label %lean_dec.exit

lean_dec.exit:                                    ; preds = %18, %17, %15, %7
  %19 = icmp eq i8 %9, 0
  tail call void @lean_inc_heartbeat() #6
  %20 = tail call noalias ptr @mi_malloc_small(i64 noundef 24) #6
  %21 = icmp eq ptr %20, null
  br i1 %19, label %22, label %36

22:                                               ; preds = %lean_dec.exit
  br i1 %21, label %23, label %lean_alloc_ctor.exit

23:                                               ; preds = %22
  tail call void @lean_internal_panic_out_of_memory() #7
  unreachable

lean_alloc_ctor.exit:                             ; preds = %22
  %24 = getelementptr inbounds nuw i8, ptr %20, i64 4
  store i32 1, ptr %20, align 4, !tbaa !10
  store i32 16908312, ptr %24, align 4
  %25 = getelementptr inbounds nuw i8, ptr %20, i64 8
  store ptr %1, ptr %25, align 8, !tbaa !4
  %26 = getelementptr inbounds nuw i8, ptr %20, i64 16
  store ptr %3, ptr %26, align 8, !tbaa !4
  %27 = tail call ptr @lean_array_push(ptr noundef %2, ptr noundef nonnull %20) #6
  tail call void @lean_inc_heartbeat() #6
  %28 = tail call noalias ptr @mi_malloc_small(i64 noundef 16) #6
  %29 = icmp eq ptr %28, null
  br i1 %29, label %30, label %lean_alloc_ctor.exit31

30:                                               ; preds = %lean_alloc_ctor.exit
  tail call void @lean_internal_panic_out_of_memory() #7
  unreachable

lean_alloc_ctor.exit31:                           ; preds = %lean_alloc_ctor.exit
  %31 = getelementptr inbounds nuw i8, ptr %28, i64 4
  store i32 1, ptr %28, align 4, !tbaa !10
  store i32 16842768, ptr %31, align 4
  %32 = getelementptr inbounds nuw i8, ptr %28, i64 8
  store ptr %27, ptr %32, align 8, !tbaa !4
  tail call void @lean_inc_heartbeat() #6
  %33 = tail call noalias ptr @mi_malloc_small(i64 noundef 24) #6
  %34 = icmp eq ptr %33, null
  br i1 %34, label %35, label %lean_alloc_ctor.exit32

35:                                               ; preds = %lean_alloc_ctor.exit31
  tail call void @lean_internal_panic_out_of_memory() #7
  unreachable

36:                                               ; preds = %lean_dec.exit
  br i1 %21, label %37, label %lean_alloc_ctor.exit33

37:                                               ; preds = %36
  tail call void @lean_internal_panic_out_of_memory() #7
  unreachable

lean_alloc_ctor.exit33:                           ; preds = %36
  %38 = getelementptr inbounds nuw i8, ptr %20, i64 4
  store i32 1, ptr %20, align 4, !tbaa !10
  store i32 33685528, ptr %38, align 4
  %39 = getelementptr inbounds nuw i8, ptr %20, i64 8
  store ptr %1, ptr %39, align 8, !tbaa !4
  %40 = getelementptr inbounds nuw i8, ptr %20, i64 16
  store ptr %3, ptr %40, align 8, !tbaa !4
  %41 = tail call ptr @lean_array_push(ptr noundef %2, ptr noundef nonnull %20) #6
  tail call void @lean_inc_heartbeat() #6
  %42 = tail call noalias ptr @mi_malloc_small(i64 noundef 16) #6
  %43 = icmp eq ptr %42, null
  br i1 %43, label %44, label %lean_alloc_ctor.exit34

44:                                               ; preds = %lean_alloc_ctor.exit33
  tail call void @lean_internal_panic_out_of_memory() #7
  unreachable

lean_alloc_ctor.exit34:                           ; preds = %lean_alloc_ctor.exit33
  %45 = getelementptr inbounds nuw i8, ptr %42, i64 4
  store i32 1, ptr %42, align 4, !tbaa !10
  store i32 16842768, ptr %45, align 4
  %46 = getelementptr inbounds nuw i8, ptr %42, i64 8
  store ptr %41, ptr %46, align 8, !tbaa !4
  tail call void @lean_inc_heartbeat() #6
  %47 = tail call noalias ptr @mi_malloc_small(i64 noundef 24) #6
  %48 = icmp eq ptr %47, null
  br i1 %48, label %49, label %lean_alloc_ctor.exit32

49:                                               ; preds = %lean_alloc_ctor.exit34
  tail call void @lean_internal_panic_out_of_memory() #7
  unreachable

lean_alloc_ctor.exit32:                           ; preds = %lean_alloc_ctor.exit34, %lean_alloc_ctor.exit31
  %.sink41 = phi ptr [ %33, %lean_alloc_ctor.exit31 ], [ %47, %lean_alloc_ctor.exit34 ]
  %.sink = phi ptr [ %28, %lean_alloc_ctor.exit31 ], [ %42, %lean_alloc_ctor.exit34 ]
  %50 = getelementptr inbounds nuw i8, ptr %.sink41, i64 4
  store i32 1, ptr %.sink41, align 4, !tbaa !10
  store i32 131096, ptr %50, align 4
  %51 = getelementptr inbounds nuw i8, ptr %.sink41, i64 8
  store ptr %.sink, ptr %51, align 8, !tbaa !4
  %52 = getelementptr inbounds nuw i8, ptr %.sink41, i64 16
  store ptr %6, ptr %52, align 8, !tbaa !4
  ret ptr %.sink41
}